; Function Attrs: inlinehint mustprogress nounwind uwtable
define internal fastcc void @_ZSt8_DestroyIPN3ue212_GLOBAL__N_14pathEEvT_S4_(ptr noundef readonly %0, ptr noundef readnone %1) unnamed_addr #6 personality ptr @__gxx_personality_v0 {
  %.not4.i = icmp eq ptr %0, %1
  br i1 %.not4.i, label %_ZNSt12_Destroy_auxILb0EE9__destroyIPN3ue212_GLOBAL__N_14pathEEEvT_S6_.exit, label %.lr.ph.i

.lr.ph.i:                                         ; preds = %2, %_ZSt8_DestroyIN3ue212_GLOBAL__N_14pathEEvPT_.exit.i
  %.05.i = phi ptr [ %10, %_ZSt8_DestroyIN3ue212_GLOBAL__N_14pathEEvPT_.exit.i ], [ %0, %2 ]
  %3 = getelementptr inbounds nuw i8, ptr %.05.i, i64 16
  %4 = load i64, ptr %3, align 8
  %.not.i.i.i.i.i = icmp eq i64 %4, 0
  br i1 %.not.i.i.i.i.i, label %_ZSt8_DestroyIN3ue212_GLOBAL__N_14pathEEvPT_.exit.i, label %5

5:                                                ; preds = %.lr.ph.i
  %6 = load ptr, ptr %.05.i, align 8
  %7 = getelementptr inbounds nuw i8, ptr %.05.i, i64 24
  %8 = icmp eq ptr %7, %6
  br i1 %8, label %_ZSt8_DestroyIN3ue212_GLOBAL__N_14pathEEvPT_.exit.i, label %9

9:                                                ; preds = %5
  tail call void @_ZdlPv(ptr noundef %6) #22
  br label %_ZSt8_DestroyIN3ue212_GLOBAL__N_14pathEEvPT_.exit.i

_ZSt8_DestroyIN3ue212_GLOBAL__N_14pathEEvPT_.exit.i: ; preds = %9, %5, %.lr.ph.i
  %10 = getelementptr inbounds nuw i8, ptr %.05.i, i64 192
  %.not.i = icmp eq ptr %10, %1
  br i1 %.not.i, label %_ZNSt12_Destroy_auxILb0EE9__destroyIPN3ue212_GLOBAL__N_14pathEEEvT_S6_.exit, label %.lr.ph.i, !llvm.loop !62

_ZNSt12_Destroy_auxILb0EE9__destroyIPN3ue212_GLOBAL__N_14pathEEEvT_S6_.exit: ; preds = %_ZSt8_DestroyIN3ue212_GLOBAL__N_14pathEEvPT_.exit.i, %2
  ret void
}